target datalayout = "e-m:e-p270:32:32-p271:32:32-p272:64:64-i64:64-i128:128-f80:128-n8:16:32:64-S128"
target triple = "x86_64-pc-linux-gnu"

%struct.evp_md_ctx_st = type { ptr, ptr, ptr, i64, ptr, ptr, ptr, ptr, ptr }
%struct.evp_md_st = type { i32, i32, i32, i64, i32, ptr, ptr, ptr, ptr, ptr, i32, i32, ptr, i32, ptr, ptr, ptr, %struct.CRYPTO_REF_COUNT, ptr, ptr, ptr, ptr, ptr, ptr, ptr, ptr, ptr, ptr, ptr, ptr, ptr, ptr, ptr }
%struct.CRYPTO_REF_COUNT = type { i32 }
%struct.evp_pkey_ctx_st = type { i32, ptr, ptr, ptr, ptr, %union.anon, %struct.anon.4, ptr, ptr, ptr, i32, i32, ptr, ptr, ptr, ptr, ptr, i8, ptr }
%union.anon = type { %struct.anon.0 }
%struct.anon.0 = type { ptr, ptr }
%struct.anon.4 = type { ptr, ptr, i64, i8 }
%struct.anon.1 = type { ptr, ptr }
%struct.ossl_param_st = type { ptr, i32, ptr, i64, i64 }
%struct.evp_signature_st = type { i32, ptr, ptr, ptr, %struct.CRYPTO_REF_COUNT, ptr, ptr, ptr, ptr, ptr, ptr, ptr, ptr, ptr, ptr, ptr, ptr, ptr, ptr, ptr, ptr, ptr, ptr, ptr, ptr, ptr, ptr, ptr, ptr, ptr, ptr, ptr, ptr, ptr, ptr, ptr, ptr }

@.str = private unnamed_addr constant [31 x i8] c"../openssl/crypto/evp/digest.c\00", align 1
@__func__.EVP_DigestFinalXOF = private unnamed_addr constant [19 x i8] c"EVP_DigestFinalXOF\00", align 1
@.str.2 = private unnamed_addr constant [7 x i8] c"xoflen\00", align 1

; Function Attrs: nounwind uwtable
define i32 @EVP_MD_CTX_set_params(ptr noundef %0, ptr noundef %1) #0 {
  %3 = alloca i32, align 4
  %4 = alloca ptr, align 8
  %5 = alloca ptr, align 8
  %6 = alloca ptr, align 8
  %7 = alloca i32, align 4
  store ptr %0, ptr %4, align 8, !tbaa !3
  store ptr %1, ptr %5, align 8, !tbaa !42
  call void @llvm.lifetime.start.p0(i64 8, ptr %6) #8
  %8 = load ptr, ptr %4, align 8, !tbaa !3
  %9 = getelementptr inbounds nuw %struct.evp_md_ctx_st, ptr %8, i32 0, i32 5
  %10 = load ptr, ptr %9, align 8, !tbaa !30
  store ptr %10, ptr %6, align 8, !tbaa !38
  %11 = load ptr, ptr %6, align 8, !tbaa !38
  %12 = icmp ne ptr %11, null
  br i1 %12, label %13, label %50

13:                                               ; preds = %2
  %14 = load ptr, ptr %6, align 8, !tbaa !38
  %15 = getelementptr inbounds nuw %struct.evp_pkey_ctx_st, ptr %14, i32 0, i32 0
  %16 = load i32, ptr %15, align 8, !tbaa !45
  %17 = icmp eq i32 %16, 256
  br i1 %17, label %23, label %18

18:                                               ; preds = %13
  %19 = load ptr, ptr %6, align 8, !tbaa !38
  %20 = getelementptr inbounds nuw %struct.evp_pkey_ctx_st, ptr %19, i32 0, i32 0
  %21 = load i32, ptr %20, align 8, !tbaa !45
  %22 = icmp eq i32 %21, 128
  br i1 %22, label %23, label %50

23:                                               ; preds = %18, %13
  %24 = load ptr, ptr %6, align 8, !tbaa !38
  %25 = getelementptr inbounds nuw %struct.evp_pkey_ctx_st, ptr %24, i32 0, i32 5
  %26 = getelementptr inbounds nuw %struct.anon.1, ptr %25, i32 0, i32 1
  %27 = load ptr, ptr %26, align 8, !tbaa !52
  %28 = icmp ne ptr %27, null
  br i1 %28, label %29, label %50

29:                                               ; preds = %23
  %30 = load ptr, ptr %6, align 8, !tbaa !38
  %31 = getelementptr inbounds nuw %struct.evp_pkey_ctx_st, ptr %30, i32 0, i32 5
  %32 = getelementptr inbounds nuw %struct.anon.1, ptr %31, i32 0, i32 0
  %33 = load ptr, ptr %32, align 8, !tbaa !52
  %34 = getelementptr inbounds nuw %struct.evp_signature_st, ptr %33, i32 0, i32 34
  %35 = load ptr, ptr %34, align 8, !tbaa !69
  %36 = icmp ne ptr %35, null
  br i1 %36, label %37, label %50

37:                                               ; preds = %29
  %38 = load ptr, ptr %6, align 8, !tbaa !38
  %39 = getelementptr inbounds nuw %struct.evp_pkey_ctx_st, ptr %38, i32 0, i32 5
  %40 = getelementptr inbounds nuw %struct.anon.1, ptr %39, i32 0, i32 0
  %41 = load ptr, ptr %40, align 8, !tbaa !52
  %42 = getelementptr inbounds nuw %struct.evp_signature_st, ptr %41, i32 0, i32 34
  %43 = load ptr, ptr %42, align 8, !tbaa !69
  %44 = load ptr, ptr %6, align 8, !tbaa !38
  %45 = getelementptr inbounds nuw %struct.evp_pkey_ctx_st, ptr %44, i32 0, i32 5
  %46 = getelementptr inbounds nuw %struct.anon.1, ptr %45, i32 0, i32 1
  %47 = load ptr, ptr %46, align 8, !tbaa !52
  %48 = load ptr, ptr %5, align 8, !tbaa !42
  %49 = call i32 %43(ptr noundef %47, ptr noundef %48)
  store i32 %49, ptr %3, align 4
  store i32 1, ptr %7, align 4
  br label %74

50:                                               ; preds = %29, %23, %18, %2
  %51 = load ptr, ptr %4, align 8, !tbaa !3
  %52 = getelementptr inbounds nuw %struct.evp_md_ctx_st, ptr %51, i32 0, i32 1
  %53 = load ptr, ptr %52, align 8, !tbaa !16
  %54 = icmp ne ptr %53, null
  br i1 %54, label %55, label %73

55:                                               ; preds = %50
  %56 = load ptr, ptr %4, align 8, !tbaa !3
  %57 = getelementptr inbounds nuw %struct.evp_md_ctx_st, ptr %56, i32 0, i32 1
  %58 = load ptr, ptr %57, align 8, !tbaa !16
  %59 = getelementptr inbounds nuw %struct.evp_md_st, ptr %58, i32 0, i32 28
  %60 = load ptr, ptr %59, align 8, !tbaa !71
  %61 = icmp ne ptr %60, null
  br i1 %61, label %62, label %73

62:                                               ; preds = %55
  %63 = load ptr, ptr %4, align 8, !tbaa !3
  %64 = getelementptr inbounds nuw %struct.evp_md_ctx_st, ptr %63, i32 0, i32 1
  %65 = load ptr, ptr %64, align 8, !tbaa !16
  %66 = getelementptr inbounds nuw %struct.evp_md_st, ptr %65, i32 0, i32 28
  %67 = load ptr, ptr %66, align 8, !tbaa !71
  %68 = load ptr, ptr %4, align 8, !tbaa !3
  %69 = getelementptr inbounds nuw %struct.evp_md_ctx_st, ptr %68, i32 0, i32 7
  %70 = load ptr, ptr %69, align 8, !tbaa !10
  %71 = load ptr, ptr %5, align 8, !tbaa !42
  %72 = call i32 %67(ptr noundef %70, ptr noundef %71)
  store i32 %72, ptr %3, align 4
  store i32 1, ptr %7, align 4
  br label %74

73:                                               ; preds = %55, %50
  store i32 0, ptr %3, align 4
  store i32 1, ptr %7, align 4
  br label %74

74:                                               ; preds = %73, %62, %37
  call void @llvm.lifetime.end.p0(i64 8, ptr %6) #8
  %75 = load i32, ptr %3, align 4
  ret i32 %75
}

; Function Attrs: nounwind uwtable
define i32 @EVP_DigestFinalXOF(ptr noundef %0, ptr noundef %1, i64 noundef %2) #0 {
  %4 = alloca i32, align 4
  %5 = alloca ptr, align 8
  %6 = alloca ptr, align 8
  %7 = alloca i64, align 8
  %8 = alloca i32, align 4
  %9 = alloca [2 x %struct.ossl_param_st], align 16
  %10 = alloca i64, align 8
  %11 = alloca i32, align 4
  %12 = alloca %struct.ossl_param_st, align 8
  %13 = alloca %struct.ossl_param_st, align 8
  store ptr %0, ptr %5, align 8, !tbaa !3
  store ptr %1, ptr %6, align 8, !tbaa !37
  store i64 %2, ptr %7, align 8, !tbaa !62
  call void @llvm.lifetime.start.p0(i64 4, ptr %8) #8
  store i32 0, ptr %8, align 4, !tbaa !8
  call void @llvm.lifetime.start.p0(i64 80, ptr %9) #8
  call void @llvm.lifetime.start.p0(i64 8, ptr %10) #8
  store i64 0, ptr %10, align 8, !tbaa !62
  %14 = load ptr, ptr %5, align 8, !tbaa !3
  %15 = getelementptr inbounds nuw %struct.evp_md_ctx_st, ptr %14, i32 0, i32 1
  %16 = load ptr, ptr %15, align 8, !tbaa !16
  %17 = icmp eq ptr %16, null
  br i1 %17, label %18, label %19

18:                                               ; preds = %3
  call void @ERR_new()
  call void @ERR_set_debug(ptr noundef @.str, i32 noundef 505, ptr noundef @__func__.EVP_DigestFinalXOF)
  call void (i32, i32, ptr, ...) @ERR_set_error(i32 noundef 6, i32 noundef 218, ptr noundef null)
  store i32 0, ptr %4, align 4
  store i32 1, ptr %11, align 4
  br label %128

19:                                               ; preds = %3
  %20 = load ptr, ptr %5, align 8, !tbaa !3
  %21 = getelementptr inbounds nuw %struct.evp_md_ctx_st, ptr %20, i32 0, i32 1
  %22 = load ptr, ptr %21, align 8, !tbaa !16
  %23 = getelementptr inbounds nuw %struct.evp_md_st, ptr %22, i32 0, i32 16
  %24 = load ptr, ptr %23, align 8, !tbaa !55
  %25 = icmp eq ptr %24, null
  br i1 %25, label %26, label %27

26:                                               ; preds = %19
  br label %71

27:                                               ; preds = %19
  %28 = load ptr, ptr %5, align 8, !tbaa !3
  %29 = getelementptr inbounds nuw %struct.evp_md_ctx_st, ptr %28, i32 0, i32 1
  %30 = load ptr, ptr %29, align 8, !tbaa !16
  %31 = getelementptr inbounds nuw %struct.evp_md_st, ptr %30, i32 0, i32 21
  %32 = load ptr, ptr %31, align 8, !tbaa !65
  %33 = icmp eq ptr %32, null
  br i1 %33, label %34, label %35

34:                                               ; preds = %27
  call void @ERR_new()
  call void @ERR_set_debug(ptr noundef @.str, i32 noundef 513, ptr noundef @__func__.EVP_DigestFinalXOF)
  call void (i32, i32, ptr, ...) @ERR_set_error(i32 noundef 6, i32 noundef 188, ptr noundef null)
  store i32 0, ptr %4, align 4
  store i32 1, ptr %11, align 4
  br label %128

35:                                               ; preds = %27
  %36 = load ptr, ptr %5, align 8, !tbaa !3
  %37 = getelementptr inbounds nuw %struct.evp_md_ctx_st, ptr %36, i32 0, i32 3
  %38 = load i64, ptr %37, align 8, !tbaa !54
  %39 = and i64 %38, 2048
  %40 = icmp ne i64 %39, 0
  br i1 %40, label %41, label %42

41:                                               ; preds = %35
  call void @ERR_new()
  call void @ERR_set_debug(ptr noundef @.str, i32 noundef 518, ptr noundef @__func__.EVP_DigestFinalXOF)
  call void (i32, i32, ptr, ...) @ERR_set_error(i32 noundef 6, i32 noundef 188, ptr noundef null)
  store i32 0, ptr %4, align 4
  store i32 1, ptr %11, align 4
  br label %128

42:                                               ; preds = %35
  %43 = load i64, ptr %10, align 8, !tbaa !62
  %44 = add i64 %43, 1
  store i64 %44, ptr %10, align 8, !tbaa !62
  %45 = getelementptr inbounds nuw [2 x %struct.ossl_param_st], ptr %9, i64 0, i64 %43
  call void @llvm.lifetime.start.p0(i64 40, ptr %12) #8
  call void @OSSL_PARAM_construct_size_t(ptr dead_on_unwind writable sret(%struct.ossl_param_st) align 8 %12, ptr noundef @.str.2, ptr noundef %7)
  call void @llvm.memcpy.p0.p0.i64(ptr align 8 %45, ptr align 8 %12, i64 40, i1 false), !tbaa.struct !67
  call void @llvm.lifetime.end.p0(i64 40, ptr %12) #8
  %46 = load i64, ptr %10, align 8, !tbaa !62
  %47 = add i64 %46, 1
  store i64 %47, ptr %10, align 8, !tbaa !62
  %48 = getelementptr inbounds nuw [2 x %struct.ossl_param_st], ptr %9, i64 0, i64 %46
  call void @llvm.lifetime.start.p0(i64 40, ptr %13) #8
  call void @OSSL_PARAM_construct_end(ptr dead_on_unwind writable sret(%struct.ossl_param_st) align 8 %13)
  call void @llvm.memcpy.p0.p0.i64(ptr align 8 %48, ptr align 8 %13, i64 40, i1 false), !tbaa.struct !67
  call void @llvm.lifetime.end.p0(i64 40, ptr %13) #8
  %49 = load ptr, ptr %5, align 8, !tbaa !3
  %50 = getelementptr inbounds [2 x %struct.ossl_param_st], ptr %9, i64 0, i64 0
  %51 = call i32 @EVP_MD_CTX_set_params(ptr noundef %49, ptr noundef %50)
  %52 = icmp sge i32 %51, 0
  br i1 %52, label %53, label %65

53:                                               ; preds = %42
  %54 = load ptr, ptr %5, align 8, !tbaa !3
  %55 = getelementptr inbounds nuw %struct.evp_md_ctx_st, ptr %54, i32 0, i32 1
  %56 = load ptr, ptr %55, align 8, !tbaa !16
  %57 = getelementptr inbounds nuw %struct.evp_md_st, ptr %56, i32 0, i32 21
  %58 = load ptr, ptr %57, align 8, !tbaa !65
  %59 = load ptr, ptr %5, align 8, !tbaa !3
  %60 = getelementptr inbounds nuw %struct.evp_md_ctx_st, ptr %59, i32 0, i32 7
  %61 = load ptr, ptr %60, align 8, !tbaa !10
  %62 = load ptr, ptr %6, align 8, !tbaa !37
  %63 = load i64, ptr %7, align 8, !tbaa !62
  %64 = call i32 %58(ptr noundef %61, ptr noundef %62, ptr noundef %7, i64 noundef %63)
  store i32 %64, ptr %8, align 4, !tbaa !8
  br label %65

65:                                               ; preds = %53, %42
  %66 = load ptr, ptr %5, align 8, !tbaa !3
  %67 = getelementptr inbounds nuw %struct.evp_md_ctx_st, ptr %66, i32 0, i32 3
  %68 = load i64, ptr %67, align 8, !tbaa !54
  %69 = or i64 %68, 2048
  store i64 %69, ptr %67, align 8, !tbaa !54
  %70 = load i32, ptr %8, align 4, !tbaa !8
  store i32 %70, ptr %4, align 4
  store i32 1, ptr %11, align 4
  br label %128

71:                                               ; preds = %26
  %72 = load ptr, ptr %5, align 8, !tbaa !3
  %73 = getelementptr inbounds nuw %struct.evp_md_ctx_st, ptr %72, i32 0, i32 1
  %74 = load ptr, ptr %73, align 8, !tbaa !16
  %75 = call i32 @EVP_MD_xof(ptr noundef %74)
  %76 = icmp ne i32 %75, 0
  br i1 %76, label %77, label %125

77:                                               ; preds = %71
  %78 = load i64, ptr %7, align 8, !tbaa !62
  %79 = icmp ule i64 %78, 2147483647
  br i1 %79, label %80, label %125

80:                                               ; preds = %77
  %81 = load ptr, ptr %5, align 8, !tbaa !3
  %82 = getelementptr inbounds nuw %struct.evp_md_ctx_st, ptr %81, i32 0, i32 1
  %83 = load ptr, ptr %82, align 8, !tbaa !16
  %84 = getelementptr inbounds nuw %struct.evp_md_st, ptr %83, i32 0, i32 12
  %85 = load ptr, ptr %84, align 8, !tbaa !68
  %86 = load ptr, ptr %5, align 8, !tbaa !3
  %87 = load i64, ptr %7, align 8, !tbaa !62
  %88 = trunc i64 %87 to i32
  %89 = call i32 %85(ptr noundef %86, i32 noundef 3, i32 noundef %88, ptr noundef null)
  %90 = icmp ne i32 %89, 0
  br i1 %90, label %91, label %125

91:                                               ; preds = %80
  %92 = load ptr, ptr %5, align 8, !tbaa !3
  %93 = getelementptr inbounds nuw %struct.evp_md_ctx_st, ptr %92, i32 0, i32 1
  %94 = load ptr, ptr %93, align 8, !tbaa !16
  %95 = getelementptr inbounds nuw %struct.evp_md_st, ptr %94, i32 0, i32 7
  %96 = load ptr, ptr %95, align 8, !tbaa !66
  %97 = load ptr, ptr %5, align 8, !tbaa !3
  %98 = load ptr, ptr %6, align 8, !tbaa !37
  %99 = call i32 %96(ptr noundef %97, ptr noundef %98)
  store i32 %99, ptr %8, align 4, !tbaa !8
  %100 = load ptr, ptr %5, align 8, !tbaa !3
  %101 = getelementptr inbounds nuw %struct.evp_md_ctx_st, ptr %100, i32 0, i32 1
  %102 = load ptr, ptr %101, align 8, !tbaa !16
  %103 = getelementptr inbounds nuw %struct.evp_md_st, ptr %102, i32 0, i32 9
  %104 = load ptr, ptr %103, align 8, !tbaa !25
  %105 = icmp ne ptr %104, null
  br i1 %105, label %106, label %115

106:                                              ; preds = %91
  %107 = load ptr, ptr %5, align 8, !tbaa !3
  %108 = getelementptr inbounds nuw %struct.evp_md_ctx_st, ptr %107, i32 0, i32 1
  %109 = load ptr, ptr %108, align 8, !tbaa !16
  %110 = getelementptr inbounds nuw %struct.evp_md_st, ptr %109, i32 0, i32 9
  %111 = load ptr, ptr %110, align 8, !tbaa !25
  %112 = load ptr, ptr %5, align 8, !tbaa !3
  %113 = call i32 %111(ptr noundef %112)
  %114 = load ptr, ptr %5, align 8, !tbaa !3
  call void @EVP_MD_CTX_set_flags(ptr noundef %114, i32 noundef 2)
  br label %115

115:                                              ; preds = %106, %91
  %116 = load ptr, ptr %5, align 8, !tbaa !3
  %117 = getelementptr inbounds nuw %struct.evp_md_ctx_st, ptr %116, i32 0, i32 4
  %118 = load ptr, ptr %117, align 8, !tbaa !26
  %119 = load ptr, ptr %5, align 8, !tbaa !3
  %120 = getelementptr inbounds nuw %struct.evp_md_ctx_st, ptr %119, i32 0, i32 1
  %121 = load ptr, ptr %120, align 8, !tbaa !16
  %122 = getelementptr inbounds nuw %struct.evp_md_st, ptr %121, i32 0, i32 11
  %123 = load i32, ptr %122, align 4, !tbaa !27
  %124 = sext i32 %123 to i64
  call void @OPENSSL_cleanse(ptr noundef %118, i64 noundef %124)
  br label %126

125:                                              ; preds = %80, %77, %71
  call void @ERR_new()
  call void @ERR_set_debug(ptr noundef @.str, i32 noundef 548, ptr noundef @__func__.EVP_DigestFinalXOF)
  call void (i32, i32, ptr, ...) @ERR_set_error(i32 noundef 6, i32 noundef 178, ptr noundef null)
  br label %126

126:                                              ; preds = %125, %115
  %127 = load i32, ptr %8, align 4, !tbaa !8
  store i32 %127, ptr %4, align 4
  store i32 1, ptr %11, align 4
  br label %128

128:                                              ; preds = %126, %65, %41, %34, %18
  call void @llvm.lifetime.end.p0(i64 8, ptr %10) #8
  call void @llvm.lifetime.end.p0(i64 80, ptr %9) #8
  call void @llvm.lifetime.end.p0(i64 4, ptr %8) #8
  %129 = load i32, ptr %4, align 4
  ret i32 %129
}