; Function Attrs: nounwind uwtable
define i32 @EVP_DigestFinalXOF(ptr noundef %0, ptr noundef %1, i64 noundef %2) local_unnamed_addr #0 {
  %4 = alloca i64, align 8
  %5 = alloca [2 x %struct.ossl_param_st], align 16
  %6 = alloca %struct.ossl_param_st, align 8
  store i64 %2, ptr %4, align 8, !tbaa !50
  call void @llvm.lifetime.start.p0(i64 80, ptr nonnull %5) #8
  %7 = getelementptr inbounds nuw i8, ptr %0, i64 8
  %8 = load ptr, ptr %7, align 8, !tbaa !12
  %9 = icmp eq ptr %8, null
  br i1 %9, label %10, label %11

10:                                               ; preds = %3
  tail call void @ERR_new() #8
  tail call void @ERR_set_debug(ptr noundef nonnull @.str, i32 noundef 505, ptr noundef nonnull @__func__.EVP_DigestFinalXOF) #8
  tail call void (i32, i32, ptr, ...) @ERR_set_error(i32 noundef 6, i32 noundef 218, ptr noundef null) #8
  br label %88

11:                                               ; preds = %3
  %12 = getelementptr inbounds nuw i8, ptr %8, i64 112
  %13 = load ptr, ptr %12, align 8, !tbaa !43
  %14 = icmp eq ptr %13, null
  br i1 %14, label %60, label %15

15:                                               ; preds = %11
  %16 = getelementptr inbounds nuw i8, ptr %8, i64 152
  %17 = load ptr, ptr %16, align 8, !tbaa !51
  %18 = icmp eq ptr %17, null
  br i1 %18, label %19, label %20

19:                                               ; preds = %15
  tail call void @ERR_new() #8
  tail call void @ERR_set_debug(ptr noundef nonnull @.str, i32 noundef 513, ptr noundef nonnull @__func__.EVP_DigestFinalXOF) #8
  tail call void (i32, i32, ptr, ...) @ERR_set_error(i32 noundef 6, i32 noundef 188, ptr noundef null) #8
  br label %88

20:                                               ; preds = %15
  %21 = getelementptr inbounds nuw i8, ptr %0, i64 24
  %22 = load i64, ptr %21, align 8, !tbaa !42
  %23 = and i64 %22, 2048
  %.not = icmp eq i64 %23, 0
  br i1 %.not, label %25, label %24

24:                                               ; preds = %20
  tail call void @ERR_new() #8
  tail call void @ERR_set_debug(ptr noundef nonnull @.str, i32 noundef 518, ptr noundef nonnull @__func__.EVP_DigestFinalXOF) #8
  tail call void (i32, i32, ptr, ...) @ERR_set_error(i32 noundef 6, i32 noundef 188, ptr noundef null) #8
  br label %88

25:                                               ; preds = %20
  call void @OSSL_PARAM_construct_size_t(ptr dead_on_unwind nonnull writable sret(%struct.ossl_param_st) align 8 %5, ptr noundef nonnull @.str.2, ptr noundef nonnull %4) #8
  %26 = getelementptr inbounds nuw i8, ptr %5, i64 40
  call void @llvm.lifetime.start.p0(i64 40, ptr nonnull %6) #8
  call void @OSSL_PARAM_construct_end(ptr dead_on_unwind nonnull writable sret(%struct.ossl_param_st) align 8 %6) #8
  call void @llvm.memcpy.p0.p0.i64(ptr noundef nonnull align 8 dereferenceable(40) %26, ptr noundef nonnull align 8 dereferenceable(40) %6, i64 40, i1 false), !tbaa.struct !54
  call void @llvm.lifetime.end.p0(i64 40, ptr nonnull %6) #8
  %27 = getelementptr inbounds nuw i8, ptr %0, i64 40
  %28 = load ptr, ptr %27, align 8, !tbaa !26
  %.not.i = icmp eq ptr %28, null
  br i1 %.not.i, label %41, label %29

29:                                               ; preds = %25
  %30 = load i32, ptr %28, align 8, !tbaa !31
  switch i32 %30, label %41 [
    i32 256, label %31
    i32 128, label %31
  ]

31:                                               ; preds = %29, %29
  %32 = getelementptr inbounds nuw i8, ptr %28, i64 48
  %33 = load ptr, ptr %32, align 8, !tbaa !40
  %.not20.i = icmp eq ptr %33, null
  br i1 %.not20.i, label %41, label %34

34:                                               ; preds = %31
  %35 = getelementptr inbounds nuw i8, ptr %28, i64 40
  %36 = load ptr, ptr %35, align 8, !tbaa !40
  %37 = getelementptr inbounds nuw i8, ptr %36, i64 272
  %38 = load ptr, ptr %37, align 8, !tbaa !57
  %.not21.i = icmp eq ptr %38, null
  br i1 %.not21.i, label %41, label %39

39:                                               ; preds = %34
  %40 = call i32 %38(ptr noundef nonnull %33, ptr noundef nonnull %5) #8
  br label %EVP_MD_CTX_set_params.exit

41:                                               ; preds = %34, %31, %29, %25
  %42 = load ptr, ptr %7, align 8, !tbaa !12, !nonnull !59, !noundef !59
  %43 = getelementptr inbounds nuw i8, ptr %42, i64 208
  %44 = load ptr, ptr %43, align 8, !tbaa !60
  %.not23.i = icmp eq ptr %44, null
  br i1 %.not23.i, label %EVP_MD_CTX_set_params.exit.thread, label %45

45:                                               ; preds = %41
  %46 = getelementptr inbounds nuw i8, ptr %0, i64 56
  %47 = load ptr, ptr %46, align 8, !tbaa !3
  %48 = call i32 %44(ptr noundef %47, ptr noundef nonnull %5) #8
  br label %EVP_MD_CTX_set_params.exit

EVP_MD_CTX_set_params.exit:                       ; preds = %39, %45
  %.0.i = phi i32 [ %40, %39 ], [ %48, %45 ]
  %49 = icmp sgt i32 %.0.i, -1
  br i1 %49, label %EVP_MD_CTX_set_params.exit.EVP_MD_CTX_set_params.exit.thread_crit_edge, label %57

EVP_MD_CTX_set_params.exit.EVP_MD_CTX_set_params.exit.thread_crit_edge: ; preds = %EVP_MD_CTX_set_params.exit
  %.pre = load ptr, ptr %7, align 8, !tbaa !12
  br label %EVP_MD_CTX_set_params.exit.thread

EVP_MD_CTX_set_params.exit.thread:                ; preds = %EVP_MD_CTX_set_params.exit.EVP_MD_CTX_set_params.exit.thread_crit_edge, %41
  %50 = phi ptr [ %.pre, %EVP_MD_CTX_set_params.exit.EVP_MD_CTX_set_params.exit.thread_crit_edge ], [ %42, %41 ]
  %51 = getelementptr inbounds nuw i8, ptr %50, i64 152
  %52 = load ptr, ptr %51, align 8, !tbaa !51
  %53 = getelementptr inbounds nuw i8, ptr %0, i64 56
  %54 = load ptr, ptr %53, align 8, !tbaa !3
  %55 = load i64, ptr %4, align 8, !tbaa !50
  %56 = call i32 %52(ptr noundef %54, ptr noundef %1, ptr noundef nonnull %4, i64 noundef %55) #8
  br label %57

57:                                               ; preds = %EVP_MD_CTX_set_params.exit.thread, %EVP_MD_CTX_set_params.exit
  %.0 = phi i32 [ %56, %EVP_MD_CTX_set_params.exit.thread ], [ 0, %EVP_MD_CTX_set_params.exit ]
  %58 = load i64, ptr %21, align 8, !tbaa !42
  %59 = or i64 %58, 2048
  store i64 %59, ptr %21, align 8, !tbaa !42
  br label %88

60:                                               ; preds = %11
  %61 = tail call i32 @EVP_MD_xof(ptr noundef nonnull %8) #8
  %62 = icmp ne i32 %61, 0
  %63 = icmp ult i64 %2, 2147483648
  %or.cond = and i1 %62, %63
  br i1 %or.cond, label %64, label %87

64:                                               ; preds = %60
  %65 = load ptr, ptr %7, align 8, !tbaa !12
  %66 = getelementptr inbounds nuw i8, ptr %65, i64 80
  %67 = load ptr, ptr %66, align 8, !tbaa !61
  %68 = trunc nuw nsw i64 %2 to i32
  %69 = tail call i32 %67(ptr noundef nonnull %0, i32 noundef 3, i32 noundef %68, ptr noundef null) #8
  %.not30 = icmp eq i32 %69, 0
  br i1 %.not30, label %87, label %70

70:                                               ; preds = %64
  %71 = load ptr, ptr %7, align 8, !tbaa !12
  %72 = getelementptr inbounds nuw i8, ptr %71, i64 48
  %73 = load ptr, ptr %72, align 8, !tbaa !53
  %74 = tail call i32 %73(ptr noundef nonnull %0, ptr noundef %1) #8
  %75 = load ptr, ptr %7, align 8, !tbaa !12
  %76 = getelementptr inbounds nuw i8, ptr %75, i64 64
  %77 = load ptr, ptr %76, align 8, !tbaa !19
  %.not31 = icmp eq ptr %77, null
  br i1 %.not31, label %80, label %78

78:                                               ; preds = %70
  %79 = tail call i32 %77(ptr noundef nonnull %0) #8
  tail call void @EVP_MD_CTX_set_flags(ptr noundef nonnull %0, i32 noundef 2) #8
  %.pre33 = load ptr, ptr %7, align 8, !tbaa !12
  br label %80

80:                                               ; preds = %78, %70
  %81 = phi ptr [ %.pre33, %78 ], [ %75, %70 ]
  %82 = getelementptr inbounds nuw i8, ptr %0, i64 32
  %83 = load ptr, ptr %82, align 8, !tbaa !20
  %84 = getelementptr inbounds nuw i8, ptr %81, i64 76
  %85 = load i32, ptr %84, align 4, !tbaa !21
  %86 = sext i32 %85 to i64
  tail call void @OPENSSL_cleanse(ptr noundef %83, i64 noundef %86) #8
  br label %88

87:                                               ; preds = %64, %60
  tail call void @ERR_new() #8
  tail call void @ERR_set_debug(ptr noundef nonnull @.str, i32 noundef 548, ptr noundef nonnull @__func__.EVP_DigestFinalXOF) #8
  tail call void (i32, i32, ptr, ...) @ERR_set_error(i32 noundef 6, i32 noundef 178, ptr noundef null) #8
  br label %88

88:                                               ; preds = %80, %87, %57, %24, %19, %10
  %.026 = phi i32 [ 0, %10 ], [ 0, %19 ], [ 0, %24 ], [ %.0, %57 ], [ %74, %80 ], [ 0, %87 ]
  call void @llvm.lifetime.end.p0(i64 80, ptr nonnull %5) #8
  ret i32 %.026
}